target datalayout = "e-m:e-p270:32:32-p271:32:32-p272:64:64-i64:64-i128:128-f80:128-n8:16:32:64-S128"
target triple = "x86_64-pc-linux-gnu"

%struct.packed_commit_list = type { ptr, i64, i64 }
%struct.write_commit_graph_context = type { ptr, ptr, ptr, %struct.oid_array, %struct.packed_commit_list, i32, i32, i64, ptr, i32, i64, ptr, i32, i32, ptr, ptr, ptr, i32, ptr, i8, ptr, ptr, i64, ptr, i32, i32, i32, i32, i32 }
%struct.oid_array = type { ptr, i64, i64, i32 }

@.str.31 = private unnamed_addr constant [1 x i8] zeroinitializer, align 1
@git_gettext_enabled = external global i32, align 4
@.str.108 = private unnamed_addr constant [49 x i8] c"failed to write correct number of base graph ids\00", align 1

; Function Attrs: inlinehint nounwind uwtable
define internal i32 @const_error() #5 {
  ret i32 -1
}

; Function Attrs: inlinehint nounwind uwtable
define internal ptr @_(ptr noundef %0) #5 {
  %2 = alloca ptr, align 8
  %3 = alloca ptr, align 8
  store ptr %0, ptr %3, align 8, !tbaa !65
  %4 = load ptr, ptr %3, align 8, !tbaa !65
  %5 = load i8, ptr %4, align 1, !tbaa !85
  %6 = icmp ne i8 %5, 0
  br i1 %6, label %8, label %7

7:                                                ; preds = %1
  store ptr @.str.31, ptr %2, align 8
  br label %16

8:                                                ; preds = %1
  %9 = load i32, ptr @git_gettext_enabled, align 4, !tbaa !4
  %10 = icmp ne i32 %9, 0
  br i1 %10, label %13, label %11

11:                                               ; preds = %8
  %12 = load ptr, ptr %3, align 8, !tbaa !65
  store ptr %12, ptr %2, align 8
  br label %16

13:                                               ; preds = %8
  %14 = load ptr, ptr %3, align 8, !tbaa !65
  %15 = call ptr @dcgettext(ptr noundef null, ptr noundef %14, i32 noundef 5) #12
  store ptr %15, ptr %2, align 8
  br label %16

16:                                               ; preds = %13, %11, %7
  %17 = load ptr, ptr %2, align 8
  ret ptr %17
}

; Function Attrs: nounwind uwtable
define internal i32 @write_graph_chunk_base(ptr noundef %0, ptr noundef %1) #0 {
  %3 = alloca i32, align 4
  %4 = alloca ptr, align 8
  %5 = alloca ptr, align 8
  %6 = alloca ptr, align 8
  %7 = alloca i32, align 4
  %8 = alloca i32, align 4
  store ptr %0, ptr %4, align 8, !tbaa !282
  store ptr %1, ptr %5, align 8, !tbaa !78
  call void @llvm.lifetime.start.p0(i64 8, ptr %6) #12
  %9 = load ptr, ptr %5, align 8, !tbaa !78
  store ptr %9, ptr %6, align 8, !tbaa !197
  call void @llvm.lifetime.start.p0(i64 4, ptr %7) #12
  %10 = load ptr, ptr %4, align 8, !tbaa !282
  %11 = load ptr, ptr %6, align 8, !tbaa !197
  %12 = getelementptr inbounds nuw %struct.write_commit_graph_context, ptr %11, i32 0, i32 18
  %13 = load ptr, ptr %12, align 8, !tbaa !261
  %14 = call i32 @write_graph_chunk_base_1(ptr noundef %10, ptr noundef %13)
  store i32 %14, ptr %7, align 4, !tbaa !4
  %15 = load i32, ptr %7, align 4, !tbaa !4
  %16 = load ptr, ptr %6, align 8, !tbaa !197
  %17 = getelementptr inbounds nuw %struct.write_commit_graph_context, ptr %16, i32 0, i32 13
  %18 = load i32, ptr %17, align 4, !tbaa !219
  %19 = sub nsw i32 %18, 1
  %20 = icmp ne i32 %15, %19
  br i1 %20, label %21, label %25

21:                                               ; preds = %2
  %22 = call ptr @_(ptr noundef @.str.108)
  %23 = call i32 (ptr, ...) @error(ptr noundef %22)
  %24 = call i32 @const_error()
  store i32 -1, ptr %3, align 4
  store i32 1, ptr %8, align 4
  br label %26

25:                                               ; preds = %2
  store i32 0, ptr %3, align 4
  store i32 1, ptr %8, align 4
  br label %26

26:                                               ; preds = %25, %21
  call void @llvm.lifetime.end.p0(i64 4, ptr %7) #12
  call void @llvm.lifetime.end.p0(i64 8, ptr %6) #12
  %27 = load i32, ptr %3, align 4
  ret i32 %27
}