; Function Attrs: nounwind uwtable
define internal range(i32 -1, 1) i32 @write_graph_chunk_base(ptr noundef %0, ptr noundef readonly captures(none) %1) #0 {
  %3 = getelementptr inbounds nuw i8, ptr %1, i64 168
  %4 = load ptr, ptr %3, align 8, !tbaa !236
  %5 = tail call fastcc i32 @write_graph_chunk_base_1(ptr noundef %0, ptr noundef %4)
  %6 = getelementptr inbounds nuw i8, ptr %1, i64 132
  %7 = load i32, ptr %6, align 4, !tbaa !229
  %8 = add nsw i32 %7, -1
  %.not = icmp eq i32 %5, %8
  br i1 %.not, label %14, label %9

9:                                                ; preds = %2
  %10 = load i32, ptr @git_gettext_enabled, align 4, !tbaa !47
  %.not4.i = icmp eq i32 %10, 0
  br i1 %.not4.i, label %_.exit, label %11

11:                                               ; preds = %9
  %12 = tail call ptr @dcgettext(ptr noundef null, ptr noundef nonnull @.str.108, i32 noundef 5) #24
  br label %_.exit

_.exit:                                           ; preds = %9, %11
  %.0.i = phi ptr [ %12, %11 ], [ @.str.108, %9 ]
  %13 = tail call i32 (ptr, ...) @error(ptr noundef %.0.i) #24
  br label %14

14:                                               ; preds = %2, %_.exit
  %.0 = phi i32 [ -1, %_.exit ], [ 0, %2 ]
  ret i32 %.0
}